(lp0
(VFreedom Square
p1
V\u0531\u0566\u0561\u057f\u0578\u0582\u0569\u0575\u0561\u0576 \u0570\u0580\u0561\u057a\u0561\u0580\u0561\u056f
p2
tp3
a(VRepublic Square
p4
V\u0540\u0561\u0576\u0580\u0561\u057a\u0565\u057f\u0578\u0582\u0569\u0575\u0561\u0576 \u0570\u0580\u0561\u057a\u0561\u0580\u0561\u056f
p5
tp6
a(VSasuntsi Davit street
p7
V\u054d\u0561\u057d\u0578\u0582\u0576\u0581\u056b \u0534\u0561\u057e\u056b\u0569 \u0583\u0578\u0572\u0578\u0581
p8
tp9
a(VHanrapetutyan street
p10
V\u0540\u0561\u0576\u0580\u0561\u057a\u0565\u057f\u0578\u0582\u0569\u0575\u0561\u0576 \u0583\u0578\u0572\u0578\u0581
p11
tp12
a(VParonyan street
p13
V\u054a\u0561\u0580\u0578\u0576\u0575\u0561\u0576\u056b \u0583\u0578\u0572\u0578\u0581
p14
tp15
a(VSevani Street
p16
V\u054d\u0587\u0561\u0576\u056b \u0583\u0578\u0572\u0578\u0581
p17
tp18
a(VMichurin street
p19
V\u0544\u056b\u0579\u0578\u0582\u0580\u056b\u0576\u056b \u0583\u0578\u0572\u0578\u0581
p20
tp21
a(VBurnazyan street
p22
V\u0532\u0578\u0582\u057c\u0576\u0561\u0566\u0575\u0561\u0576 \u0583\u0578\u0572\u0578\u0581
p23
tp24
a(VMuratsan street
p25
V\u0544\u0578\u0582\u0580\u0561\u0581\u0561\u0576\u056b \u0583\u0578\u0572\u0578\u0581
p26
tp27
a(VAzatamartikneri Street
p28
V\u0531\u0566\u0561\u057f\u0561\u0574\u0561\u0580\u057f\u056b\u056f\u0576\u0565\u0580\u056b \u0583\u0578\u0572\u0578\u0581
p29
tp30
a(VTamanyan street
p31
V\u0539\u0561\u0574\u0561\u0576\u0575\u0561\u0576\u056b \u0583\u0578\u0572\u0578\u0581
p32
tp33
a(VAleksandr Spendiarian street
p34
V\u0531\u056c\u0565\u0584\u057d\u0561\u0576\u0564\u0580 \u054d\u057a\u0565\u0576\u0564\u056b\u0561\u0580\u0575\u0561\u0576\u056b \u0583\u0578\u0572\u0578\u0581
p35
tp36
a(VParpetsi
p37
V\u0553\u0561\u0580\u0583\u0565\u0581\u0578\u0582 \u0583\u0578\u0572\u0578\u0581
p38
tp39
a(VKristapor street
p40
V\u0554\u0580\u056b\u057d\u057f\u0561\u0583\u0578\u0580\u056b \u0583\u0578\u0572\u0578\u0581
p41
tp42
a(VRostom street
p43
V\u054c\u0578\u057d\u057f\u0578\u0574\u056b \u0583\u0578\u0572\u0578\u0581
p44
tp45
a(VYeznik Koghbaci Street
p46
V\u0535\u0566\u0576\u056b\u056f \u053f\u0578\u0572\u0562\u0561\u0581\u0578\u0582 \u0583\u0578\u0572\u0578\u0581
p47
tp48
a(VSari Tag 17 street
p49
V\u054d\u0561\u0580\u056b \u0539\u0561\u0572\u056b 17-\u0580\u0564 \u0583\u0578\u0572\u0578\u0581
p50
tp51
a(VSari Tag 18 street
p52
V\u054d\u0561\u0580\u056b \u0539\u0561\u0572\u056b 18-\u0580\u0564 \u0583\u0578\u0572\u0578\u0581
p53
tp54
a(VSari Tag 11 street
p55
V\u054d\u0561\u0580\u056b \u0539\u0561\u0572\u056b 11-\u0580\u0564 \u0583\u0578\u0572\u0578\u0581
p56
tp57
a(VSari Tag 20-th street
p58
V\u054d\u0561\u0580\u056b \u0539\u0561\u0572\u056b 20-\u0580\u0564 \u0583\u0578\u0572\u0578\u0581
p59
tp60
a(VSari Tag 25 street
p61
V\u054d\u0561\u0580\u056b \u0539\u0561\u0572\u056b 25-\u0580\u0564 \u0583\u0578\u0572\u0578\u0581
p62
tp63
a(VSari Tag 3 street;Sari Tag 3-rd street
p64
V\u054d\u0561\u0580\u056b \u0539\u0561\u0572\u056b 3-\u0580\u0564 \u0583\u0578\u0572\u0578\u0581
p65
tp66
a(VSari Tag 10 street
p67
V\u054d\u0561\u0580\u056b \u0539\u0561\u0572\u056b 10-\u0580\u0564 \u0583\u0578\u0572\u0578\u0581
p68
tp69
a(VGlinka street
p70
V\u0533\u056c\u056b\u0576\u056f\u0561\u0575\u056b \u0583\u0578\u0572\u0578\u0581
p71
tp72
a(VSari Tag 6 street
p73
V\u054d\u0561\u0580\u056b \u0539\u0561\u0572\u056b 6-\u0580\u0564 \u0583\u0578\u0572\u0578\u0581
p74
tp75
a(VSari Tag 7 backsteet
p76
V\u054d\u0561\u0580\u056b \u0539\u0561\u0572\u056b 7-\u0580\u0564 \u0576\u0580\u0562\u0561\u0576\u0581\u0584
p77
tp78
a(VSari Tag 9 backstreet
p79
V\u054d\u0561\u0580\u056b \u0539\u0561\u0572\u056b 9-\u0580\u0564 \u0576\u0580\u0562\u0561\u0576\u0581\u0584
p80
tp81
a(VAygestan 11th Street
p82
V\u0531\u0575\u0563\u0565\u057d\u057f\u0561\u0576\u056b 11\u0580\u0564 \u0583\u0578\u0572\u0578\u0581
p83
tp84
a(VSari Tag 12 street
p85
V\u054d\u0561\u0580\u056b \u0539\u0561\u0572\u056b 12-\u0580\u0564 \u0583\u0578\u0572\u0578\u0581
p86
tp87
a(VSari Tag 16 street
p88
V\u054d\u0561\u0580\u056b \u0539\u0561\u0572\u056b 16-\u0580\u0564 \u0583\u0578\u0572\u0578\u0581
p89
tp90
a(VSari Tag 9 street
p91
V\u054d\u0561\u0580\u056b \u0539\u0561\u0572\u056b 9-\u0580\u0564 \u0583\u0578\u0572\u0578\u0581
p92
tp93
a(VSari tag 13 street
p94
V\u054d\u0561\u0580\u056b \u0539\u0561\u0572\u056b 13-\u0580\u0564 \u0583\u0578\u0572\u0578\u0581
p95
tp96
a(VSari Tag 13 backstreet
p97
V\u054d\u0561\u0580\u056b \u0539\u0561\u0572\u056b 19-\u0580\u0564 \u0576\u0580\u0562\u0561\u0576\u0581\u0584
p98
tp99
a(VSari Tag 14 street
p100
V\u054d\u0561\u0580\u056b \u0539\u0561\u0572\u056b 14-\u0580\u0564 \u0583\u0578\u0572\u0578\u0581
p101
tp102
a(VSari Tag 1-st street
p103
V\u054d\u0561\u0580\u056b \u0539\u0561\u0572\u056b 1-\u056b\u0576 \u0583\u0578\u0572\u0578\u0581
p104
tp105
a(VSari Tag 2-nd street
p106
V\u054d\u0561\u0580\u056b \u0539\u0561\u0572\u056b 2-\u0580\u0564 \u0583\u0578\u0572\u0578\u0581
p107
tp108
a(VJack Iv Kusto Street
p109
V\u053a\u0561\u056f \u053b\u057e \u053f\u0578\u0582\u057d\u057f\u0578\u0575\u056b \u0583\u0578\u0572\u0578\u0581
p110
tp111
a(VVormnadirneri street
p112
V\u0548\u0580\u0574\u0576\u0561\u0564\u056b\u0580\u0576\u0565\u0580\u056b \u0583\u0578\u0572\u0578\u0581
p113
tp114
a(VSari Tag 2 backstreet
p115
V\u054d\u0561\u0580\u056b \u0539\u0561\u0572\u056b 2-\u0580\u0564 \u0576\u0580\u0562\u0561\u0576\u0581\u0584
p116
tp117
a(VAghyusagorcneri street
p118
V\u0531\u0572\u0575\u0578\u0582\u057d\u0561\u0563\u0578\u0580\u056e\u0576\u0565\u0580\u056b \u0583\u0578\u0572\u0578\u0581
p119
tp120
a(VTskhakhotagortsneri street
p121
V\u053e\u056d\u0561\u056d\u0578\u057f\u0561\u0563\u0578\u0580\u056e\u0576\u0565\u0580\u056b \u0583\u0578\u0572\u0578\u0581
p122
tp123
a(VKristapor 1-st backstreet
p124
V\u0554\u0580\u056b\u057d\u057f\u0561\u0583\u0578\u0580\u056b 1-\u056b\u0576 \u0576\u0580\u0562\u0561\u0576\u0581\u0584
p125
tp126
a(VKajaznuni street
p127
V\u0554\u0561\u057b\u0561\u0566\u0576\u0578\u0582\u0576\u056b \u0583\u0578\u0572\u0578\u0581
p128
tp129
a(VKristapor 3-rd backstreet
p130
V\u0554\u0580\u056b\u057d\u057f\u0561\u0583\u0578\u0580\u056b 3-\u0580\u0564 \u0576\u0580\u0562\u0561\u0576\u0581\u0584
p131
tp132
a(VSari Tag 8 and 9 lines
p133
V\u054d\u0561\u0580\u056b \u0539\u0561\u0572\u056b 8-\u0587 9-\u0580\u0564 \u0563\u056e\u0565\u0580
p134
tp135
a(VDerenik Demirjian street
p136
V\u0534\u0565\u0580\u0565\u0576\u056b\u056f \u0534\u0565\u0574\u056b\u0580\u0573\u0575\u0561\u0576\u056b \u0583\u0578\u0572\u0578\u0581
p137
tp138
a(VFrik Street
p139
V\u0556\u0580\u056b\u056f\u056b \u0583\u0578\u0572\u0578\u0581
p140
tp141
a(VByuzand Street
p142
V\u0532\u0575\u0578\u0582\u0566\u0561\u0576\u0564\u056b \u0583\u0578\u0572\u0578\u0581
p143
tp144
a(VJames Bryce Street
p145
VBahramyan ave. 2nd lane,  James Bryce str.
p146
tp147
a(VAygedzor 1st backstreet
p148
V\u0531\u0575\u0563\u0565\u0571\u0578\u0580\u056b 1-\u056b\u0576 \u0576\u0580\u0562\u0561\u0576\u0581\u0584
p149
tp150
a(VLer Kamsari street
p151
V\u053c\u0565\u057c \u053f\u0561\u0574\u057d\u0561\u0580\u056b \u0583\u0578\u0572\u0578\u0581
p152
tp153
a(VSarmen street
p154
V\u054d\u0561\u0580\u0574\u0565\u0576\u056b \u0583\u0578\u0572\u0578\u0581
p155
tp156
a(VZarobyan street
p157
V\u0536\u0561\u0580\u0578\u0562\u0575\u0561\u0576 \u0583\u0578\u0572\u0578\u0581
p158
tp159
a(VProshyan avenue 1st line
p160
V\u054a\u057c\u0578\u0577\u0575\u0561\u0576 \u057a\u0578\u0572\u0578\u057f\u0561 1\u056b\u0576 \u0576\u0580\u0562\u0561\u0576\u0581\u0584
p161
tp162
a(VSarmen street
p163
V\u054d\u0561\u0580\u0574\u0565\u0576\u056b \u0583\u0578\u0572\u0578\u0581
p164
tp165
a(VMoscow Alley
p166
V\u0544\u0578\u057d\u056f\u0578\u057e\u0575\u0561\u0576 \u057a\u0578\u0582\u0580\u0561\u056f
p167
tp168
a(VTpagrichner street
p169
V\u054f\u057a\u0561\u0563\u0580\u056b\u0579\u0576\u0565\u0580\u056b \u0583\u0578\u0572\u0578\u0581
p170
tp171
a(VVardanants backstreet
p172
V\u054e\u0561\u0580\u0564\u0561\u0576\u0561\u0576\u0581 \u0583\u0578\u0572\u0578\u0581\u056b \u0561\u0576\u0581\u0578\u0582\u0572\u056b
p173
tp174
a(VDzorapi Street
p175
V\u0541\u0578\u0580\u0561\u0583\u056b \u0583\u0578\u0572\u0578\u0581
p176
tp177
a(VAjgestan 9th Street
p178
V\u0531\u0575\u0563\u0565\u057d\u057f\u0561\u0576\u056b 9\u0580\u0564 \u0583\u0578\u0572\u0578\u0581
p179
tp180
a(VAygestan 9th street
p181
V\u0531\u0575\u0563\u0565\u057d\u057f\u0561\u0576\u056b 9-\u0580\u0564 \u0583\u0578\u0572\u0578\u0581
p182
tp183
a(VVardan Achemyan 3-nd backstreet
p184
V\u054e\u0561\u0580\u0564\u0561\u0576 \u0531\u0573\u0565\u0574\u0575\u0561\u0576 3-\u0580\u0564 \u0576\u0580\u0562\u0561\u0576\u0581\u0584
p185
tp186
a(VSuvorov street
p187
V\u054d\u0578\u0582\u057e\u0578\u0580\u0578\u057e\u056b \u0583\u0578\u0572\u0578\u0581
p188
tp189
a(VLoris Melikov street
p190
V\u053c\u0578\u0580\u056b\u057d-\u0544\u0565\u056c\u056b\u0584\u0578\u057e\u056b \u0583\u0578\u0572\u0578\u0581
p191
tp192
a(VCherneshivski street
p193
V\u0549\u0565\u0580\u0576\u0565\u0577\u0565\u057e\u057d\u056f\u0578\u0582 \u0583\u0578\u0572\u0578\u0581
p194
tp195
a(VVerfel street
p196
V\u054e\u0565\u0580\u0586\u0565\u056c\u056b \u0583\u0578\u0572\u0578\u0581
p197
tp198
a(VAyas Street
p199
V\u0531\u0575\u0561\u057d\u056b \u0583\u0578\u0572\u0578\u0581
p200
tp201
a(VTarson Street
p202
V\u054f\u0561\u0580\u057d\u0578\u0576\u056b \u0583\u0578\u0572\u0578\u0581
p203
tp204
a(VBudapesht Street
p205
V\u0532\u0578\u0582\u0564\u0561\u057a\u0565\u0577\u057f\u056b \u0583\u0578\u0572\u0578\u0581
p206
tp207
a(VMayisi 9 St.
p208
V\u0544\u0561\u0575\u056b\u057d\u056b 9-\u056b \u0583\u0578\u0572\u0578\u0581
p209
tp210
a(VManandyan Streeet
p211
V\u0544\u0561\u0576\u0561\u0576\u0564\u0575\u0561\u0576\u056b \u0583\u0578\u0572\u0578\u0581
p212
tp213
a(VMantashyan Street
p214
V\u0544\u0561\u0576\u0569\u0561\u0577\u0575\u0561\u0576\u056b \u0583\u0578\u0572\u0578\u0581
p215
tp216
a(VSimon Vratsyan street
p217
V\u054d\u056b\u0574\u0578\u0576 \u054e\u0580\u0561\u0581\u0575\u0561\u0576\u056b \u0583\u0578\u0572\u0578\u0581
p218
tp219
a(VMher Mkrtchyan Street
p220
V\u0544\u0570\u0565\u0580 \u0544\u056f\u0580\u057f\u0579\u0575\u0561\u0576 \u0583\u0578\u0572\u0578\u0581
p221
tp222
a(VAgatangeghos street
p223
V\u0531\u0563\u0561\u0569\u0561\u0576\u0563\u0565\u0572\u0578\u057d\u056b \u0583\u0578\u0572\u0578\u0581
p224
tp225
a(VYervand Kochar street
p226
V\u0535\u0580\u057e\u0561\u0576\u0564 \u0554\u0578\u0579\u0561\u0580\u056b \u0583\u0578\u0572\u0578\u0581
p227
tp228
a(VItaly Street
p229
V\u053b\u057f\u0561\u056c\u0561\u056f\u0561\u0576 \u0583\u0578\u0572\u0578\u0581
p230
tp231
a(VVazgen Sargsyan Street
p232
V\u054e\u0561\u0566\u0563\u0565\u0576 \u054d\u0561\u0580\u0563\u057d\u0575\u0561\u0576\u056b \u0583\u0578\u0572\u0578\u0581
p233
tp234
a(VVazgen Sargsyan Street
p235
V\u054e\u0561\u0566\u0563\u0565\u0576 \u054d\u0561\u0580\u0563\u057d\u0575\u0561\u0576\u056b \u0583\u0578\u0572\u0578\u0581
p236
tp237
a(VArgishti street
p238
V\u0531\u0580\u0563\u056b\u0577\u057f\u056b \u0583\u0578\u0572\u0578\u0581
p239
tp240
a(VVictory bridge
p241
V\u0540\u0561\u0572\u0569\u0561\u0576\u0561\u056f\u056b \u056f\u0561\u0574\u0578\u0582\u0580\u057b
p242
tp243
a(VAlek Manoukyan street
p244
V\u0531\u056c\u0565\u0584 \u0544\u0561\u0576\u0578\u0582\u056f\u0575\u0561\u0576\u056b \u0583\u0578\u0572\u0578\u0581
p245
tp246
a(VArtsakh avenue
p247
V\u0531\u0580\u0581\u0561\u056d\u056b \u057a\u0578\u0572\u0578\u057f\u0561
p248
tp249
a(VVardan Achemyan street
p250
V\u054e\u0561\u0580\u0564\u0561\u0576 \u0531\u0573\u0565\u0574\u0575\u0561\u0576 \u0583\u0578\u0572\u0578\u0581
p251
tp252
a(VTigran Mets 2-nd backstreet
p253
V\u054f\u056b\u0563\u0580\u0561\u0576 \u0544\u0565\u056e\u056b 2-\u0580\u0564 \u0576\u0580\u0562\u0561\u0576\u0581\u0584
p254
tp255
a(VTolstoy street
p256
V\u054f\u0578\u056c\u057d\u057f\u0578\u0575\u056b \u0583\u0578\u0572\u0578\u0581
p257
tp258
a(VZavaryan street
p259
V\u0536\u0561\u057e\u0561\u0580\u0575\u0561\u0576 \u0583\u0578\u0572\u0578\u0581
p260
tp261
a(VKhorhrdaran Street
p262
V\u053d\u0578\u0580\u0570\u0580\u0564\u0561\u0580\u0561\u0576\u056b \u0583\u0578\u0572\u0578\u0581
p263
tp264
a(VAlek Manoukyan street
p265
V\u0531\u056c\u0565\u0584 \u0544\u0561\u0576\u0578\u0582\u056f\u0575\u0561\u0576\u056b \u0583\u0578\u0572\u0578\u0581
p266
tp267
a(VLusinyants Street
p268
V\u053c\u0578\u0582\u057d\u056b\u0576\u0575\u0561\u0576\u0581 \u0583\u0578\u0572\u0578\u0581
p269
tp270
a(VSisvan Street
p271
V\u054d\u056b\u057d\u057e\u0561\u0576\u056b \u0583\u0578\u0572\u0578\u0581
p272
tp273
a(VPrague Street
p274
V\u054a\u0580\u0561\u0563\u0561\u0575\u056b \u0583\u0578\u0572\u0578\u0581
p275
tp276
a(VLambron Street
p277
V\u053c\u0561\u0574\u0562\u0580\u0578\u0576\u056b \u0583\u0578\u0572\u0578\u0581
p278
tp279
a(VBardzrberd street
p280
V\u0532\u0561\u0580\u0571\u0580\u0562\u0565\u0580\u0564\u056b \u0583\u0578\u0572\u0578\u0581
p281
tp282
a(VTairov Street
p283
V\u0539\u0561\u056b\u0580\u0578\u057e\u056b \u0583\u0578\u0572\u0578\u0581
p284
tp285
a(VBryusov Street
p286
V\u0532\u0580\u0575\u0578\u0582\u057d\u0578\u057e\u056b \u0583\u0578\u0572\u0578\u0581
p287
tp288
a(VCharents Street
p289
V\u0549\u0561\u0580\u0565\u0576\u0581\u056b \u0583\u0578\u0572\u0578\u0581
p290
tp291
a(VArami Street
p292
V\u0531\u0580\u0561\u0574\u056b \u0583\u0578\u0572\u0578\u0581
p293
tp294
a(VSaryan street
p295
V\u054d\u0561\u0580\u0575\u0561\u0576\u056b \u0583\u0578\u0572\u0578\u0581
p296
tp297
a(VProshyan street
p298
V\u054a\u057c\u0578\u0577\u0575\u0561\u0576 \u0583\u0578\u0572\u0578\u0581
p299
tp300
a(VNorthern Avenue
p301
V\u0540\u0575\u0578\u0582\u057d\u056b\u057d\u0561\u0575\u056b\u0576 \u057a\u0578\u0572\u0578\u057f\u0561
p302
tp303
a(VHrazdan bridge
p304
V\u0540\u0580\u0561\u0566\u0564\u0561\u0576\u056b \u0574\u0565\u056e \u056f\u0561\u0574\u0578\u0582\u0580\u057b
p305
tp306
a(VDeghatan street
p307
V\u0534\u0565\u0572\u0561\u057f\u0561\u0576 \u0583\u0578\u0572\u0578\u0581
p308
tp309
a(VMesrop Mashtots Avenue
p310
V\u0544\u0565\u057d\u0580\u0578\u057a \u0544\u0561\u0577\u057f\u0578\u0581\u056b \u057a\u0578\u0572\u0578\u057f\u0561
p311
tp312
a(VTumanian deadend street
p313
V\u0553\u0561\u0580\u057a\u0565\u0581\u0578\u0582 \u0576\u0580\u0562\u0561\u0576\u0581\u0584
p314
tp315
a(VYekmalyan street
p316
V\u0535\u056f\u0574\u0561\u056c\u0575\u0561\u0576 \u0583\u0578\u0572\u0578\u0581
p317
tp318
a(VGlinka street
p319
V\u0533\u056c\u056b\u0576\u056f\u0561\u0575\u056b \u0583\u0578\u0572\u0578\u0581
p320
tp321
a(VGlinka street
p322
V\u0533\u056c\u056b\u0576\u056f\u0561\u0575\u056b \u0583\u0578\u0572\u0578\u0581
p323
tp324
a(VHin Erevantsu Street
p325
V\u0540\u056b\u0576 \u0535\u0580\u0587\u0561\u0576\u0581\u0578\u0582 \u0583\u0578\u0572\u0578\u0581
p326
tp327
a(VKhanjyan street
p328
V\u053d\u0561\u0576\u057b\u0575\u0561\u0576 \u0583\u0578\u0572\u0578\u0581
p329
tp330
a(VAntarain street
p331
V\u0531\u0576\u057f\u0561\u057c\u0561\u0575\u056b\u0576 \u0583\u0578\u0572\u0578\u0581
p332
tp333
a(VVardanants street
p334
V\u054e\u0561\u0580\u0564\u0561\u0576\u0561\u0576\u0581 \u0583\u0578\u0572\u0578\u0581
p335
tp336
a(VVardanants street
p337
V\u054e\u0561\u0580\u0564\u0561\u0576\u0561\u0576\u0581 \u0583\u0578\u0572\u0578\u0581
p338
tp339
a(VKhanjyan street
p340
V\u053d\u0561\u0576\u057b\u0575\u0561\u0576 \u0583\u0578\u0572\u0578\u0581
p341
tp342
a(VAlek Manoukyan street
p343
V\u0531\u056c\u0565\u0584 \u0544\u0561\u0576\u0578\u0582\u056f\u0575\u0561\u0576\u056b \u0583\u0578\u0572\u0578\u0581
p344
tp345
a(VZavaryan street
p346
V\u0536\u0561\u057e\u0561\u0580\u0575\u0561\u0576 \u0583\u0578\u0572\u0578\u0581
p347
tp348
a(VTumanian street
p349
V\u0539\u0578\u0582\u0574\u0561\u0576\u0575\u0561\u0576 \u0583\u0578\u0572\u0578\u0581
p350
tp351
a(VYeznik Koghbaci Street
p352
V\u0535\u0566\u0576\u056b\u056f \u053f\u0578\u0572\u0562\u0561\u0581\u0578\u0582 \u0583\u0578\u0572\u0578\u0581
p353
tp354
a(VYeznik Koghbaci Street
p355
V\u0535\u0566\u0576\u056b\u056f \u053f\u0578\u0572\u0562\u0561\u0581\u0578\u0582 \u0583\u0578\u0572\u0578\u0581
p356
tp357
a(VIsrayelyan street
p358
V\u053b\u057d\u0580\u0561\u0575\u0565\u056c\u0575\u0561\u0576 \u0583\u0578\u0572\u0578\u0581
p359
tp360
a(VLisinyan street
p361
V\u053c\u056b\u057d\u056b\u0576\u0575\u0561\u0576 \u0583\u0578\u0572\u0578\u0581
p362
tp363
a(VGaregin Nzhdeh street
p364
V\u0533\u0561\u0580\u0565\u0563\u056b\u0576 \u0546\u056a\u0564\u0565\u0570\u056b \u0583\u0578\u0572\u0578\u0581
p365
tp366
a(VBelkinsky street
p367
V\u0532\u0565\u056c\u056b\u0576\u057d\u056f\u0578\u0582 \u0583\u0578\u0572\u0578\u0581
p368
tp369
a(VAygestan 10th Street
p370
V\u0531\u0575\u0563\u0565\u057d\u057f\u0561\u0576\u056b 10\u0580\u0564 \u0583\u0578\u0572\u0578\u0581
p371
tp372
a(VKhanjyan Street
p373
V\u053d\u0561\u0576\u057b\u0575\u0561\u0576 \u0583\u0578\u0572\u0578\u0581
p374
tp375
a(VKhorenatsi street
p376
V\u053d\u0578\u0580\u0565\u0576\u0561\u0581\u0578\u0582 \u0583\u0578\u0572\u0578\u0581
p377
tp378
a(VTigran Mets avenue
p379
V\u054f\u056b\u0563\u0580\u0561\u0576 \u0544\u0565\u056e\u056b \u057a\u0578\u0572\u0578\u057f\u0561
p380
tp381
a(VKhanjyan Street
p382
V\u053d\u0561\u0576\u057b\u0575\u0561\u0576 \u0583\u0578\u0572\u0578\u0581
p383
tp384
a(VTigran Mets avenue
p385
V\u054f\u056b\u0563\u0580\u0561\u0576 \u0544\u0565\u056e\u056b \u057a\u0578\u0572\u0578\u057f\u0561
p386
tp387
a(VMher Mkrtchyan Street
p388
V\u0544\u0570\u0565\u0580 \u0544\u056f\u0580\u057f\u0579\u0575\u0561\u0576 \u0583\u0578\u0572\u0578\u0581
p389
tp390
a(VArgishti street
p391
V\u0531\u0580\u0563\u056b\u0577\u057f\u056b \u0583\u0578\u0572\u0578\u0581
p392
tp393
a(VArgishti street
p394
V\u0531\u0580\u0563\u056b\u0577\u057f\u056b \u0583\u0578\u0572\u0578\u0581
p395
tp396
a(VAtenk street
p397
V\u0531\u0569\u0565\u0576\u0584\u056b \u0583\u0578\u0572\u0578\u0581
p398
tp399
a(VAtenk street
p400
V\u0531\u0569\u0565\u0576\u0584\u056b \u0583\u0578\u0572\u0578\u0581
p401
tp402
a(VArami Street
p403
V\u0531\u0580\u0561\u0574\u056b \u0583\u0578\u0572\u0578\u0581
p404
tp405
a(VByuzand Street
p406
V\u0532\u0575\u0578\u0582\u0566\u0561\u0576\u0564\u056b \u0583\u0578\u0572\u0578\u0581
p407
tp408
a(VByuzand Street
p409
V\u0532\u0575\u0578\u0582\u0566\u0561\u0576\u0564\u056b \u0583\u0578\u0572\u0578\u0581
p410
tp411
a(VAram Street
p412
V\u0531\u0580\u0561\u0574\u056b \u0583\u0578\u0572\u0578\u0581
p413
tp414
a(VKhanjyan street
p415
V\u053d\u0561\u0576\u057b\u0575\u0561\u0576 \u0583\u0578\u0572\u0578\u0581
p416
tp417
a(VAdmiral Isakov Avenue
p418
V\u0531\u0564\u0574\u056b\u0580\u0561\u056c \u053b\u057d\u0561\u056f\u0578\u057e\u056b \u057a\u0578\u0572\u0578\u057f\u0561
p419
tp420
a(VCharents Street
p421
V\u0549\u0561\u0580\u0565\u0576\u0581\u056b \u0583\u0578\u0572\u0578\u0581
p422
tp423
a(VAbovyan street
p424
V\u0531\u0562\u0578\u057e\u0575\u0561\u0576 \u0583\u0578\u0572\u0578\u0581
p425
tp426
a(VVictory bridge
p427
V\u0540\u0561\u0572\u0569\u0561\u0576\u0561\u056f\u056b \u056f\u0561\u0574\u0578\u0582\u0580\u057b
p428
tp429
a(VAbovyan street
p430
V\u0531\u0562\u0578\u057e\u0575\u0561\u0576 \u0583\u0578\u0572\u0578\u0581
p431
tp432
a(VAtenk street
p433
V\u0531\u0569\u0565\u0576\u0584\u056b \u0583\u0578\u0572\u0578\u0581
p434
tp435
a(VAtenk street
p436
V\u0531\u0569\u0565\u0576\u0584\u056b \u0583\u0578\u0572\u0578\u0581
p437
tp438
a(VTsitsernakaberd Highway
p439
V\u053e\u056b\u056e\u0565\u057c\u0576\u0561\u056f\u0561\u0562\u0565\u0580\u0564\u056b \u056d\u0573\u0578\u0582\u0572\u056b
p440
tp441
a(VTsitsernakaberd Highway
p442
V\u053e\u056b\u056e\u0565\u057c\u0576\u0561\u056f\u0561\u0562\u0565\u0580\u0564\u056b \u056d\u0573\u0578\u0582\u0572\u056b
p443
tp444
a(VTsitsernakaberd Highway
p445
V\u053e\u056b\u056e\u0565\u057c\u0576\u0561\u056f\u0561\u0562\u0565\u0580\u0564\u056b \u056d\u0573\u0578\u0582\u0572\u056b
p446
tp447
a(VBurnazyan backstreet
p448
V\u0532\u057c\u0582\u057c\u0576\u0561\u0566\u0575\u0561\u0576 \u0576\u0580\u0562\u0561\u0576\u0581\u0584
p449
tp450
a(VSuvorov backstreet
p451
V\u054d\u0578\u0582\u057e\u0578\u0580\u0578\u057e\u056b \u0576\u0580\u0562\u0561\u0576\u0581\u0584
p452
tp453
a(VBurnazyan backstreet
p454
V\u0532\u057c\u0582\u057c\u0576\u0561\u0566\u0575\u0561\u0576 \u0576\u0580\u0562\u0561\u0576\u0581\u0584
p455
tp456
a(VSuvorov backstreet
p457
V\u054d\u0578\u0582\u057e\u0578\u0580\u0578\u057e\u056b \u0576\u0580\u0562\u0561\u0576\u0581\u0584
p458
tp459
a(VMuratsan 1st backstreet
p460
V\u0544\u0578\u0582\u0580\u0561\u0581\u0561\u0576\u056b 1-\u056b\u0576 \u0576\u0580\u0562\u0561\u0576\u0581\u0584
p461
tp462
a(VLomonosov Street
p463
V\u053c\u0578\u0574\u0578\u0576\u0578\u057d\u0578\u057e\u056b \u0583\u0578\u0572\u0578\u0581
p464
tp465
a(VSasuntsi Davit backstreet
p466
V\u054d\u0561\u057d\u0578\u0582\u0576\u0581\u056b \u0534\u0561\u057e\u0569\u056b  \u0576\u0580\u0562\u0561\u0576\u0581\u0584
p467
tp468
a(VToramanyan Street
p469
V\u0539\u0578\u0580\u0561\u0574\u0561\u0576\u0575\u0561\u0576 \u0583\u0578\u0572\u0578\u0581
p470
tp471
a(VAzatamartikneri backstreet
p472
V\u0531\u0566\u0561\u057f\u0561\u0574\u0561\u0580\u057f\u056b\u056f\u0576\u0565\u0565\u0580\u056b \u0576\u0569\u0562\u0561\u0576\u0581\u0584
p473
tp474
a(VKrilov Street
p475
V\u053f\u057c\u056b\u056c\u0578\u057e\u056b \u0583\u0578\u0572\u0578\u0581
p476
tp477
a(VGlinka street
p478
V\u0533\u056c\u056b\u0576\u056f\u0561\u0575\u056b \u0583\u0578\u0572\u0578\u0581
p479
tp480
a(VGlinka street
p481
V\u0533\u056c\u056b\u0576\u056f\u0561\u0575\u056b \u0583\u0578\u0572\u0578\u0581
p482
tp483
a(VByusand Street
p484
V\u0532\u0575\u0578\u0582\u0566\u0561\u0576\u0564\u056b \u0583\u0578\u0572\u0578\u0581
p485
tp486
a(VByusand Street
p487
V\u0532\u0575\u0578\u0582\u0566\u0561\u0576\u0564\u056b \u0583\u0578\u0572\u0578\u0581
p488
tp489
a(VSmbat Zoravar Street
p490
V\u054d\u0574\u0562\u0561\u057f \u0566\u0578\u0580\u0561\u057e\u0561\u0580\u056b \u0583\u0578\u0572\u0578\u0581
p491
tp492
a(VTchaykovsky Street
p493
V\u0549\u0561\u0575\u056f\u0578\u057e\u057d\u056f\u0578\u0582 \u0583\u0578\u0572\u0578\u0581
p494
tp495
a(VTeryan street
p496
V\u054f\u0565\u0580\u0575\u0561\u0576 \u0583\u0578\u0572\u0578\u0581
p497
tp498
a(VTeryan street
p499
V\u054f\u0565\u0580\u0575\u0561\u0576 \u0583\u0578\u0572\u0578\u0581
p500
tp501
a(VMesrop Mashtots Avenue
p502
V\u0544\u0565\u057d\u0580\u0578\u057a \u0544\u0561\u0577\u057f\u0578\u0581\u056b \u057a\u0578\u0572\u0578\u057f\u0561
p503
tp504
a(VTeryan street
p505
V\u054f\u0565\u0580\u0575\u0561\u0576 \u0583\u0578\u0572\u0578\u0581
p506
tp507
a(VKoryun Street
p508
V\u053f\u0578\u0580\u0575\u0578\u0582\u0576\u056b \u0583\u0578\u0572\u0578\u0581
p509
tp510
a(VKoryun Street
p511
V\u053f\u0578\u0580\u0575\u0578\u0582\u0576\u056b \u0583\u0578\u0572\u0578\u0581
p512
tp513
a(VMesrop Mashtots Avenue
p514
V\u0544\u0565\u057d\u0580\u0578\u057a \u0544\u0561\u0577\u057f\u0578\u0581\u056b \u057a\u0578\u0572\u0578\u057f\u0561
p515
tp516
a(VMelik-Adamyan Street
p517
V\u0544\u0565\u056c\u056b\u0584-\u0531\u0564\u0561\u0574\u0575\u0561\u0576\u056b \u0583\u0578\u0572\u0578\u0581
p518
tp519
a(VAtenk street
p520
V\u0531\u0569\u0565\u0576\u0584\u056b \u0583\u0578\u0572\u0578\u0581
p521
tp522
a(VAdmiral Isakov Avenue
p523
V\u0531\u0564\u0574\u056b\u0580\u0561\u056c \u053b\u057d\u0561\u056f\u0578\u057e\u056b \u057a\u0578\u0572\u0578\u057f\u0561
p524
tp525
a(VAdmiral Isakov Avenue
p526
V\u0531\u0564\u0574\u056b\u0580\u0561\u056c \u053b\u057d\u0561\u056f\u0578\u057e\u056b \u057a\u0578\u0572\u0578\u057f\u0561
p527
tp528
a(VMoskovyan Street
p529
V\u0544\u0578\u057d\u056f\u0578\u057e\u0575\u0561\u0576 \u0583\u0578\u0572\u0578\u0581
p530
tp531
a(VAdmiral Isakov Avenue
p532
V\u0531\u0564\u0574\u056b\u0580\u0561\u056c \u053b\u057d\u0561\u056f\u0578\u057e\u056b \u057a\u0578\u0572\u0578\u057f\u0561
p533
tp534
a(VGrigor Lusavorich
p535
V\u0533\u0580\u056b\u0580\u0563\u0578\u0580 \u053c\u0578\u0582\u057d\u0561\u057e\u0578\u0580\u0579\u056b \u0583\u0578\u0572\u0578\u0581
p536
tp537
a(VPushkin street
p538
V\u054a\u0578\u0582\u0577\u056f\u056b\u0576\u056b \u0583\u0578\u0572\u0578\u0581
p539
tp540
a(VMoskovyan Street
p541
V\u0544\u0578\u057d\u056f\u0578\u057e\u0575\u0561\u0576 \u0583\u0578\u0572\u0578\u0581
p542
tp543
a(VAmiryan street
p544
V\u0531\u0574\u056b\u0580\u0575\u0561\u0576 \u0583\u0578\u0572\u0578\u0581
p545
tp546
a(VNalbandyan street
p547
V\u0546\u0561\u056c\u0562\u0561\u0576\u0564\u0575\u0561\u0576\u056b \u0583\u0578\u0572\u0578\u0581
p548
tp549
a(VNalbandyan street
p550
V\u0546\u0561\u056c\u0562\u0561\u0576\u0564\u0575\u0561\u0576\u056b \u0583\u0578\u0572\u0578\u0581
p551
tp552
a(VStepan Zoryan street
p553
V\u054d\u057f\u0565\u0583\u0561\u0576 \u0536\u0578\u0580\u0575\u0561\u0576\u056b \u0583\u0578\u0572\u0578\u0581
p554
tp555
a(VTeryan street
p556
V\u054f\u0565\u0580\u0575\u0561\u0576 \u0583\u0578\u0572\u0578\u0581
p557
tp558
a(VAvetik Isahakyan street
p559
V\u0531\u057e\u0565\u057f\u056b\u0584 \u053b\u057d\u0561\u0570\u0561\u056f\u0575\u0561\u0576 \u0583\u0578\u0572\u0578\u0581
p560
tp561
a(VStepan Zoryan street
p562
V\u054d\u057f\u0565\u0583\u0561\u0576 \u0536\u0578\u0580\u0575\u0561\u0576\u056b \u0583\u0578\u0572\u0578\u0581
p563
tp564
a(VSayat Nova avenu
p565
V\u054d\u0561\u0575\u0561\u0569 \u0546\u0578\u057e\u0561\u0575\u056b \u057a\u0578\u0572\u0578\u057f\u0561
p566
tp567
a(VMoskovyan Street
p568
V\u0544\u0578\u057d\u056f\u0578\u057e\u0575\u0561\u0576 \u0583\u0578\u0572\u0578\u0581
p569
tp570
a(VMoskovyan Street
p571
V\u0544\u0578\u057d\u056f\u0578\u057e\u0575\u0561\u0576 \u0583\u0578\u0572\u0578\u0581
p572
tp573
a(VSayat Nova avenu
p574
V\u054d\u0561\u0575\u0561\u0569 \u0546\u0578\u057e\u0561\u0575\u056b \u057a\u0578\u0572\u0578\u057f\u0561
p575
tp576
a(VMarshal Baghramyan avenue
p577
V\u0544\u0561\u0580\u0577\u0561\u056c \u0532\u0561\u0572\u0580\u0561\u0574\u0575\u0561\u0576\u056b \u057a\u0578\u0572\u0578\u057f\u0561
p578
tp579
a(VMark Grigoryan street
p580
V\u0544\u0561\u0580\u056f \u0533\u0580\u056b\u0563\u0578\u0580\u0575\u0561\u0576\u056b \u0583\u0578\u0572\u0578\u0581
p581
tp582
a(VSayat Nova avenu
p583
V\u054d\u0561\u0575\u0561\u0569 \u0546\u0578\u057e\u0561\u0575\u056b \u057a\u0578\u0572\u0578\u057f\u0561
p584
tp585
a(VAvetik Isahakyan street
p586
V\u0531\u057e\u0565\u057f\u056b\u0584 \u053b\u057d\u0561\u0570\u0561\u056f\u0575\u0561\u0576 \u0583\u0578\u0572\u0578\u0581
p587
tp588
a(VAbovyan street
p589
V\u0531\u0562\u0578\u057e\u0575\u0561\u0576 \u0583\u0578\u0572\u0578\u0581
p590
tp591
a(VByron Street
p592
V\u0532\u0561\u0575\u0580\u0578\u0576\u056b \u0583\u0578\u0572\u0578\u0581
p593
tp594
a(VStepan Zoryan street
p595
V\u054d\u057f\u0565\u0583\u0561\u0576 \u0536\u0578\u0580\u0575\u0561\u0576\u056b \u0583\u0578\u0572\u0578\u0581
p596
tp597
a(VMesrop Mashtots Avenue
p598
V\u0544\u0565\u057d\u0580\u0578\u057a \u0544\u0561\u0577\u057f\u0578\u0581\u056b \u057a\u0578\u0572\u0578\u057f\u0561
p599
tp600
a(VMarshal Baghramyan avenue
p601
V\u0544\u0561\u0580\u0577\u0561\u056c \u0532\u0561\u0572\u0580\u0561\u0574\u0575\u0561\u0576\u056b \u057a\u0578\u0572\u0578\u057f\u0561
p602
tp603
a(VSayat Nova avenu
p604
V\u054d\u0561\u0575\u0561\u0569 \u0546\u0578\u057e\u0561\u0575\u056b \u057a\u0578\u0572\u0578\u057f\u0561
p605
tp606
a(VMoskovyan Street
p607
V\u0544\u0578\u057d\u056f\u0578\u057e\u0575\u0561\u0576 \u0583\u0578\u0572\u0578\u0581
p608
tp609
a(VAvetik Isahakyan street
p610
V\u0531\u057e\u0565\u057f\u056b\u0584 \u053b\u057d\u0561\u0570\u0561\u056f\u0575\u0561\u0576 \u0583\u0578\u0572\u0578\u0581
p611
tp612
a(VMoskovyan Street
p613
V\u0544\u0578\u057d\u056f\u0578\u057e\u0575\u0561\u0576 \u0583\u0578\u0572\u0578\u0581
p614
tp615
a(VTeryan street
p616
V\u054f\u0565\u0580\u0575\u0561\u0576 \u0583\u0578\u0572\u0578\u0581
p617
tp618
a(VKoryun Street
p619
V\u053f\u0578\u0580\u0575\u0578\u0582\u0576\u056b \u0583\u0578\u0572\u0578\u0581
p620
tp621
a(VTigran Mets avenue
p622
V\u054f\u056b\u0563\u0580\u0561\u0576 \u0544\u0565\u056e\u056b \u057a\u0578\u0572\u0578\u057f\u0561
p623
tp624
a(VKoryun Street
p625
V\u053f\u0578\u0580\u0575\u0578\u0582\u0576\u056b \u0583\u0578\u0572\u0578\u0581
p626
tp627
a(VTumanian street
p628
V\u0539\u0578\u0582\u0574\u0561\u0576\u0575\u0561\u0576 \u0583\u0578\u0572\u0578\u0581
p629
tp630
a(VTumanian street
p631
V\u0539\u0578\u0582\u0574\u0561\u0576\u0575\u0561\u0576 \u0583\u0578\u0572\u0578\u0581
p632
tp633
a(VTumanian street
p634
V\u0539\u0578\u0582\u0574\u0561\u0576\u0575\u0561\u0576 \u0583\u0578\u0572\u0578\u0581
p635
tp636
a(VTeryan street
p637
V\u054f\u0580\u0575\u0561\u0576 \u0583\u0578\u0572\u0578\u0581
p638
tp639
a(VTeryan street
p640
V\u054f\u0565\u0580\u0575\u0561\u0576 \u0583\u0578\u0572\u0578\u0581
p641
tp642
a(VMoskovyan Street
p643
V\u0544\u0578\u057d\u056f\u0578\u057e\u0575\u0561\u0576 \u0583\u0578\u0572\u0578\u0581
p644
tp645
a(VAghayan street
p646
V\u0531\u0572\u0561\u0575\u0561\u0576 \u0583\u0578\u0572\u0578\u0581
p647
tp648
a(VAbovyan street
p649
V\u0531\u0562\u0578\u057e\u0575\u0561\u0576 \u0583\u0578\u0572\u0578\u0581
p650
tp651
a(VKoryun Street
p652
V\u053f\u0578\u0580\u0575\u0578\u0582\u0576\u056b \u0583\u0578\u0572\u0578\u0581
p653
tp654
a(VKhorenatsi street
p655
V\u053d\u0578\u0580\u0565\u0576\u0561\u0581\u0578\u0582 \u0583\u0578\u0572\u0578\u0581
p656
tp657
a(VKhorenatsi street
p658
V\u053d\u0578\u0580\u0565\u0576\u0561\u0581\u0578\u0582 \u0583\u0578\u0572\u0578\u0581
p659
tp660
a(VNar-Dos street
p661
V\u0546\u0561\u0580\u2013\u0534\u0578\u057d\u056b \u0583\u0578\u0572\u0578\u0581
p662
tp663
a(VNar-Dos street
p664
V\u0546\u0561\u0580\u2013\u0534\u0578\u057d\u056b \u0583\u0578\u0572\u0578\u0581
p665
tp666
a(VArshakuniants avenue
p667
V\u0531\u0580\u0577\u0561\u056f\u0578\u0582\u0576\u0575\u0561\u0576\u0581 \u057a\u0578\u0572\u0578\u057f\u0561
p668
tp669
a(VTigran Mets avenue
p670
V\u054f\u056b\u0563\u0580\u0561\u0576 \u0544\u0565\u056e\u056b \u057a\u0578\u0572\u0578\u057f\u0561
p671
tp672
a(VKhorenatsi street
p673
V\u053d\u0578\u0580\u0565\u0576\u0561\u0581\u0578\u0582 \u0583\u0578\u0572\u0578\u0581
p674
tp675
a(VNar-Dos street
p676
V\u0546\u0561\u0580\u2013\u0534\u0578\u057d\u056b \u0583\u0578\u0572\u0578\u0581
p677
tp678
a(VTigran Mets avenue
p679
V\u054f\u056b\u0563\u0580\u0561\u0576 \u0544\u0565\u056e\u056b \u057a\u0578\u0572\u0578\u057f\u0561
p680
tp681
a(VKhorenatsi street
p682
V\u053d\u0578\u0580\u0565\u0576\u0561\u0581\u0578\u0582 \u0583\u0578\u0572\u0578\u0581
p683
tp684
a(VKhorenatsi street
p685
V\u053d\u0578\u0580\u0565\u0576\u0561\u0581\u0578\u0582 \u0583\u0578\u0572\u0578\u0581
p686
tp687
a(VKhorenatsi street
p688
V\u053d\u0578\u0580\u0565\u0576\u0561\u0581\u0578\u0582 \u0583\u0578\u0572\u0578\u0581
p689
tp690
a(VKhorenatsi street
p691
V\u053d\u0578\u0580\u0565\u0576\u0561\u0581\u0578\u0582 \u0583\u0578\u0572\u0578\u0581
p692
tp693
a(VZakian Street
p694
V\u0536\u0561\u0575\u0561\u0576 \u0583\u0578\u0572\u0578\u0581
p695
tp696
a(VZakian Street
p697
V\u0536\u0561\u0584\u0575\u0561\u0576 \u0583\u0578\u0572\u0578\u0581
p698
tp699
a(VHeratsi Street
p700
V\u0540\u0565\u057c\u0561\u0581\u0578\u0582 \u0583\u0578\u0572\u0578\u0581
p701
tp702
a(VHeratsi Street
p703
V\u0540\u0565\u057c\u0561\u0581\u0578\u0582 \u0583\u0578\u0572\u0578\u0581
p704
tp705
a(VMarshal Baghramyan avenue
p706
V\u0544\u0561\u0580\u0577\u0561\u056c \u0532\u0561\u0572\u0580\u0561\u0574\u0575\u0561\u0576\u056b \u057a\u0578\u0572\u0578\u057f\u0561
p707
tp708
a(VMarshal Baghramyan avenue
p709
V\u0544\u0561\u0580\u0577\u0561\u056c \u0532\u0561\u0572\u0580\u0561\u0574\u0575\u0561\u0576\u056b \u057a\u0578\u0572\u0578\u057f\u0561
p710
tp711
a(VMarshal Baghramyan avenue
p712
V\u0544\u0561\u0580\u0577\u0561\u056c \u0532\u0561\u0572\u0580\u0561\u0574\u0575\u0561\u0576\u056b \u057a\u0578\u0572\u0578\u057f\u0561
p713
tp714
a(VAbovyan street
p715
V\u0531\u0562\u0578\u057e\u0575\u0561\u0576 \u0583\u0578\u0572\u0578\u0581
p716
tp717
a(VTumanian street
p718
V\u0539\u0578\u0582\u0574\u0561\u0576\u0575\u0561\u0576 \u0583\u0578\u0572\u0578\u0581
p719
tp720
a(VVardanants street
p721
V\u054e\u0561\u0580\u0564\u0561\u0576\u0561\u0576\u0581 \u0583\u0578\u0572\u0578\u0581
p722
tp723
a(VTumanian street
p724
V\u0539\u0578\u0582\u0574\u0561\u0576\u0575\u0561\u0576 \u0583\u0578\u0572\u0578\u0581
p725
tp726
a(VAbovyan street
p727
V\u0531\u0562\u0578\u057e\u0575\u0561\u0576 \u0583\u0578\u0572\u0578\u0581
p728
tp729
a(VBeirut Street
p730
V\u0532\u0565\u0575\u0580\u0578\u0582\u0569\u056b \u0583\u0578\u0572\u0578\u0581
p731
tp732
a(VTumanian street
p733
V\u0539\u0578\u0582\u0574\u0561\u0576\u0575\u0561\u0576 \u0583\u0578\u0572\u0578\u0581
p734
tp735
a(VArgishti street
p736
V\u0531\u0580\u0563\u056b\u0577\u057f\u056b \u0583\u0578\u0572\u0578\u0581
p737
tp738
a(VParonyan street
p739
V\u054a\u0561\u0580\u0578\u0576\u0575\u0561\u0576\u056b \u0583\u0578\u0572\u0578\u0581
p740
tp741
a(VArshakuniants avenue
p742
V\u0531\u0580\u0577\u0561\u056f\u0578\u0582\u0576\u0575\u0561\u0576\u0581 \u057a\u0578\u0572\u0578\u057f\u0561
p743
tp744
a(VArshakunyats avenue
p745
V\u0531\u0580\u0577\u0561\u056f\u0578\u0582\u0576\u0575\u0561\u0576\u0581 \u057a\u0578\u0572\u0578\u057f\u0561
p746
tp747
a(VGrigor Lusavorich
p748
V\u0533\u0580\u056b\u0580\u0563\u0578\u0580 \u053c\u0578\u0582\u057d\u0561\u057e\u0578\u0580\u0579\u056b \u0583\u0578\u0572\u0578\u0581
p749
tp750
a(VArshakuniants avenue
p751
V\u0531\u0580\u0577\u0561\u056f\u0578\u0582\u0576\u0575\u0561\u0576\u0581 \u057a\u0578\u0572\u0578\u057f\u0561
p752
tp753
a(VArshakuniants avenue
p754
V\u0531\u0580\u0577\u0561\u056f\u0578\u0582\u0576\u0575\u0561\u0576\u0581 \u057a\u0578\u0572\u0578\u057f\u0561
p755
tp756
a(VArshakunyats avenue
p757
V\u0531\u0580\u0577\u0561\u056f\u0578\u0582\u0576\u0575\u0561\u0576\u0581 \u057a\u0578\u0572\u0578\u057f\u0561
p758
tp759
a(VKristapor street
p760
V\u0554\u0580\u056b\u057d\u057f\u0561\u0583\u0578\u0580\u056b \u0583\u0578\u0572\u0578\u0581
p761
tp762
a(VArshakuniants avenue
p763
V\u0531\u0580\u0577\u0561\u056f\u0578\u0582\u0576\u0575\u0561\u0576\u0581 \u057a\u0578\u0572\u0578\u057f\u0561
p764
tp765
a(VGrigor Lusavorich
p766
V\u0533\u0580\u056b\u0580\u0563\u0578\u0580 \u053c\u0578\u0582\u057d\u0561\u057e\u0578\u0580\u0579\u056b \u0583\u0578\u0572\u0578\u0581
p767
tp768
a(VArshakuniants avenue
p769
V\u0531\u0580\u0577\u0561\u056f\u0578\u0582\u0576\u0575\u0561\u0576\u0581 \u057a\u0578\u0572\u0578\u057f\u0561
p770
tp771
a(VMesrop Mashtots Avenue
p772
V\u0544\u0565\u057d\u0580\u0578\u057a \u0544\u0561\u0577\u057f\u0578\u0581\u056b \u057a\u0578\u0572\u0578\u057f\u0561
p773
tp774
a(VArshakuniats Avenue
p775
V\u0531\u0580\u0577\u0561\u056f\u0578\u0582\u0576\u0575\u0561\u0576\u0581 \u057a\u0578\u0572\u0578\u057f\u0561
p776
tp777
a(VKristapor street
p778
V\u0554\u0580\u056b\u057d\u057f\u0561\u0583\u0578\u0580\u056b \u0583\u0578\u0572\u0578\u0581
p779
tp780
a(VArshakuniants avenue
p781
V\u0531\u0580\u0577\u0561\u056f\u0578\u0582\u0576\u0575\u0561\u0576\u0581 \u057a\u0578\u0572\u0578\u057f\u0561
p782
tp783
a(VArshakuniants avenue
p784
V\u0531\u0580\u0577\u0561\u056f\u0578\u0582\u0576\u0575\u0561\u0576\u0581 \u057a\u0578\u0572\u0578\u057f\u0561
p785
tp786
a(VArgishti street
p787
V\u0531\u0580\u0563\u056b\u0577\u057f\u056b \u0583\u0578\u0572\u0578\u0581
p788
tp789
a(VRepublic Square
p790
V\u0540\u0561\u0576\u0580\u0561\u057a\u0565\u057f\u0578\u0582\u0569\u0575\u0561\u0576 \u0570\u0580\u0561\u057a\u0561\u0580\u0561\u056f
p791
tp792
a(VTumanian street
p793
V\u0539\u0578\u0582\u0574\u0561\u0576\u0575\u0561\u0576 \u0583\u0578\u0572\u0578\u0581
p794
tp795
a(VAbovyan street
p796
V\u0531\u0562\u0578\u057e\u0575\u0561\u0576 \u0583\u0578\u0572\u0578\u0581
p797
tp798
a(VRepublic Square
p799
V\u0540\u0561\u0576\u0580\u0561\u057a\u0565\u057f\u0578\u0582\u0569\u0575\u0561\u0576 \u0570\u0580\u0561\u057a\u0561\u0580\u0561\u056f
p800
tp801
a(VRepublic Square
p802
V\u0540\u0561\u0576\u0580\u0561\u057a\u0565\u057f\u0578\u0582\u0569\u0575\u0561\u0576 \u0570\u0580\u0561\u057a\u0561\u0580\u0561\u056f
p803
tp804
a(VAbovyan street
p805
V\u0531\u0562\u0578\u057e\u0575\u0561\u0576 \u0583\u0578\u0572\u0578\u0581
p806
tp807
a(VSayat Nova avenu
p808
V\u054d\u0561\u0575\u0561\u0569 \u0546\u0578\u057e\u0561\u0575\u056b \u057a\u0578\u0572\u0578\u057f\u0561
p809
tp810
a(VNalbandyan street
p811
V\u0546\u0561\u056c\u0562\u0561\u0576\u0564\u0575\u0561\u0576\u056b \u0583\u0578\u0572\u0578\u0581
p812
tp813
a(VAram Street
p814
V\u0531\u0580\u0561\u0574\u056b \u0583\u0578\u0572\u0578\u0581
p815
tp816
a(VPushkin street
p817
V\u054a\u0578\u0582\u0577\u056f\u056b\u0576\u056b \u0583\u0578\u0572\u0578\u0581
p818
tp819
a(VMesrop Mashtots Avenue
p820
V\u0544\u0565\u057d\u0580\u0578\u057a \u0544\u0561\u0577\u057f\u0578\u0581\u056b \u057a\u0578\u0572\u0578\u057f\u0561
p821
tp822
a(VMesrop Mashtots Avenue
p823
V\u0544\u0565\u057d\u0580\u0578\u057a \u0544\u0561\u0577\u057f\u0578\u0581\u056b \u057a\u0578\u0572\u0578\u057f\u0561
p824
tp825
a(VMesrop Mashtots Avenue
p826
V\u0544\u0565\u057d\u0580\u0578\u057a \u0544\u0561\u0577\u057f\u0578\u0581\u056b \u057a\u0578\u0572\u0578\u057f\u0561
p827
tp828
a(VHanrapetutyan street
p829
V\u0540\u0561\u0576\u0580\u0561\u057a\u0565\u057f\u0578\u0582\u0569\u0575\u0561\u0576 \u0583\u0578\u0572\u0578\u0581
p830
tp831
a(VAmiryan street
p832
V\u0531\u0574\u056b\u0580\u0575\u0561\u0576 \u0583\u0578\u0572\u0578\u0581
p833
tp834
a(VSaryan street
p835
V\u054d\u0561\u0580\u0575\u0561\u0576\u056b \u0583\u0578\u0572\u0578\u0581
p836
tp837
a(VTamanyan street
p838
V\u0539\u0561\u0574\u0561\u0576\u0575\u0561\u0576\u056b \u0583\u0578\u0572\u0578\u0581
p839
tp840
a(VNalbandyan street
p841
V\u0546\u0561\u056c\u0562\u0561\u0576\u0564\u0575\u0561\u0576\u056b \u0583\u0578\u0572\u0578\u0581
p842
tp843
a(VTumanian street
p844
V\u0539\u0578\u0582\u0574\u0561\u0576\u0575\u0561\u0576 \u0583\u0578\u0572\u0578\u0581
p845
tp846
a(VAbovyan street
p847
V\u0531\u0562\u0578\u057e\u0575\u0561\u0576 \u0583\u0578\u0572\u0578\u0581
p848
tp849
a(VAbovyan street
p850
V\u0531\u0562\u0578\u057e\u0575\u0561\u0576 \u0583\u0578\u0572\u0578\u0581
p851
tp852
a(VSayat Nova Street
p853
V\u054d\u0561\u0575\u0561\u0569 \u0546\u0578\u057e\u0561\u0575\u056b \u057a\u0578\u0572\u0578\u057f\u0561
p854
tp855
a(VPetros Adamyan Street
p856
V\u054a\u0565\u057f\u0580\u0578\u057d \u0531\u0564\u0561\u0574\u0575\u0561\u0576\u056b \u0583\u0578\u0572\u0578\u0581
p857
tp858
a(VMarshal Baghramyan avenue
p859
V\u0544\u0561\u0580\u0577\u0561\u056c \u0532\u0561\u0572\u0580\u0561\u0574\u0575\u0561\u0576\u056b \u057a\u0578\u0572\u0578\u057f\u0561
p860
tp861
a(VMesrop Mashtots Avenue
p862
V\u0544\u0565\u057d\u0580\u0578\u057a \u0544\u0561\u0577\u057f\u0578\u0581\u056b \u057a\u0578\u0572\u0578\u057f\u0561
p863
tp864
a(VMesrop Mashtots Avenue
p865
V\u0544\u0565\u057d\u0580\u0578\u057a \u0544\u0561\u0577\u057f\u0578\u0581\u056b \u057a\u0578\u0572\u0578\u057f\u0561
p866
tp867
a(VSayat Nova avenu
p868
V\u054d\u0561\u0575\u0561\u0569 \u0546\u0578\u057e\u0561\u0575\u056b \u057a\u0578\u0572\u0578\u057f\u0561
p869
tp870
a(VMark Grigoryan street
p871
V\u0544\u0561\u0580\u056f \u0533\u0580\u056b\u0563\u0578\u0580\u0575\u0561\u0576\u056b \u0583\u0578\u0572\u0578\u0581
p872
tp873
a(VSayat Nova avenu
p874
V\u054d\u0561\u0575\u0561\u0569 \u0546\u0578\u057e\u0561\u0575\u056b \u057a\u0578\u0572\u0578\u057f\u0561
p875
tp876
a(VHeratsi Street
p877
V\u0540\u0565\u057c\u0561\u0581\u0578\u0582 \u0583\u0578\u0572\u0578\u0581
p878
tp879
a(VKhanjyan street
p880
V\u053d\u0561\u0576\u057b\u0575\u0561\u0576 \u0583\u0578\u0572\u0578\u0581
p881
tp882
a(VAgatangeghos street
p883
V\u0531\u0563\u0561\u0569\u0561\u0576\u0563\u0565\u0572\u0578\u057d\u056b \u0583\u0578\u0572\u0578\u0581
p884
tp885
a(VKhanjyan Street
p886
V\u053d\u0561\u0576\u057b\u0575\u0561\u0576 \u0583\u0578\u0572\u0578\u0581
p887
tp888
a(VKhanjyan street
p889
V\u053d\u0561\u0576\u057b\u0575\u0561\u0576 \u0583\u0578\u0572\u0578\u0581
p890
tp891
a(VAgatangeghos street
p892
V\u0531\u0563\u0561\u0569\u0561\u0576\u0563\u0565\u0572\u0578\u057d\u056b \u0583\u0578\u0572\u0578\u0581
p893
tp894
a(VAgatangeghos street
p895
V\u0531\u0563\u0561\u0569\u0561\u0576\u0563\u0565\u0572\u0578\u057d\u056b \u0583\u0578\u0572\u0578\u0581
p896
tp897
a(VGrigor Lusavorich
p898
V\u0533\u0580\u056b\u0580\u0563\u0578\u0580 \u053c\u0578\u0582\u057d\u0561\u057e\u0578\u0580\u0579\u056b \u0583\u0578\u0572\u0578\u0581
p899
tp900
a(VVardanants street
p901
V\u054e\u0561\u0580\u0564\u0561\u0576\u0561\u0576\u0581 \u0583\u0578\u0572\u0578\u0581
p902
tp903
a(VKhanjyan street
p904
V\u053d\u0561\u0576\u057b\u0575\u0561\u0576 \u0583\u0578\u0572\u0578\u0581
p905
tp906
a(VVardanants street
p907
V\u054e\u0561\u0580\u0564\u0561\u0576\u0561\u0576\u0581 \u0583\u0578\u0572\u0578\u0581
p908
tp909
a(VKhanjyan street
p910
V\u053d\u0561\u0576\u057b\u0575\u0561\u0576 \u0583\u0578\u0572\u0578\u0581
p911
tp912
a(VKhanjyan street
p913
V\u053d\u0561\u0576\u057b\u0575\u0561\u0576 \u0583\u0578\u0572\u0578\u0581
p914
tp915
a(VGrigor Lusavorich
p916
V\u0533\u0580\u056b\u0580\u0563\u0578\u0580 \u053c\u0578\u0582\u057d\u0561\u057e\u0578\u0580\u0579\u056b \u0583\u0578\u0572\u0578\u0581
p917
tp918
a(VKhanjyan street
p919
V\u053d\u0561\u0576\u057b\u0575\u0561\u0576 \u0583\u0578\u0572\u0578\u0581
p920
tp921
a(VKhanjyan street
p922
V\u053d\u0561\u0576\u057b\u0575\u0561\u0576 \u0583\u0578\u0572\u0578\u0581
p923
tp924
a(VKhanjyan street
p925
V\u053d\u0561\u0576\u057b\u0575\u0561\u0576 \u0583\u0578\u0572\u0578\u0581
p926
tp927
a(VMesrop Mashtots Avenue
p928
V\u0544\u057d\u0580\u0578\u057a \u0544\u0561\u0577\u057f\u0578\u0581\u056b \u057a\u0578\u0572\u0578\u057f\u0561
p929
tp930
a(VMesrop Mashtots Avenue
p931
V\u0544\u0565\u057d\u0580\u0578\u057a \u0544\u0561\u0577\u057f\u0578\u0581\u056b \u057a\u0578\u0572\u0578\u057f\u0561
p932
tp933
a(VTeryan street
p934
V\u054f\u0565\u0580\u0575\u0561\u0576 \u0583\u0578\u0572\u0578\u0581
p935
tp936
a(VByron street
p937
V\u0532\u0561\u0575\u0580\u0578\u0576\u056b \u0583\u0578\u0572\u0578\u0581
p938
tp939
a(VTeryan street
p940
V\u054f\u0565\u0580\u0575\u0561\u0576 \u0583\u0578\u0572\u0578\u0581
p941
tp942
a(VTeryan street
p943
V\u054f\u0565\u0580\u0575\u0561\u0576 \u0583\u0578\u0572\u0578\u0581
p944
tp945
a(VAvetik Isahakyan street
p946
V\u0531\u057e\u0565\u057f\u056b\u0584 \u053b\u057d\u0561\u0570\u0561\u056f\u0575\u0561\u0576 \u0583\u0578\u0572\u0578\u0581
p947
tp948
a(VTeryan street
p949
V\u054f\u0565\u0580\u0575\u0561\u0576 \u0583\u0578\u0572\u0578\u0581
p950
tp951
a(VByron street
p952
V\u0532\u0561\u0575\u0580\u0578\u0576\u056b \u0583\u0578\u0572\u0578\u0581
p953
tp954
a(VTeryan street
p955
V\u054f\u0565\u0580\u0575\u0561\u0576 \u0583\u0578\u0572\u0578\u0581
p956
tp957
a(VTigran Mets avenue
p958
V\u054f\u056b\u0563\u0580\u0561\u0576 \u0544\u0565\u056e\u056b \u057a\u0578\u0572\u0578\u057f\u0561
p959
tp960
a(VTigran Mets avenue
p961
V\u054f\u056b\u0563\u0580\u0561\u0576 \u0544\u0565\u056e\u056b \u057a\u0578\u0572\u0578\u057f\u0561
p962
tp963
a(VTigran Mets avenue
p964
V\u054f\u056b\u0563\u0580\u0561\u0576 \u0544\u0565\u056e\u056b \u057a\u0578\u0572\u0578\u057f\u0561
p965
tp966
a(VMoskovyan Street
p967
V\u0544\u0578\u057d\u056f\u0578\u057e\u0575\u0561\u0576 \u0583\u0578\u0572\u0578\u0581
p968
tp969
a(VGetari Street
p970
V\u0533\u0565\u057f\u0561\u057c\u056b \u0583\u0578\u0572\u0578\u0581
p971
tp972
a(VKhorenatsu 2nd backstreet
p973
V\u053d\u0578\u0580\u0565\u0576\u0561\u0581\u0578\u0582 2-\u0580\u0564 \u0576\u0580\u0562\u0561\u0576\u0581\u0584
p974
tp975
a(VLeo street
p976
V\u053c\u0565\u0578\u0575\u056b \u0583\u0578\u0572\u0578\u0581
p977
tp978
a(VDzoragjugh street
p979
V\u0541\u0578\u0580\u0561\u0563\u0575\u0578\u0582\u0572\u056b \u0583\u0578\u0572\u0578\u0581
p980
tp981
a(VSayat Nova avenu
p982
V\u054d\u0561\u0575\u0561\u0569 \u0546\u0578\u057e\u0561\u0575\u056b \u057a\u0578\u0572\u0578\u057f\u0561
p983
tp984
a(VDzorapi Street
p985
V\u0541\u0578\u0580\u0561\u0583\u056b \u0583\u0578\u0572\u0578\u0581
p986
tp987
a(VUruguay square
p988
V\u0548\u0582\u0580\u0578\u0582\u0563\u057e\u0561\u0575\u056b \u0570\u0580\u0561\u057a\u0561\u0580\u0561\u056f
p989
tp990
a(VSari Tag 1-st street
p991
V\u054d\u0561\u0580\u056b \u0539\u0561\u0572\u056b 1-\u056b\u0576 \u0583\u0578\u0572\u0578\u0581
p992
tp993
a(VGlinka backstreet
p994
V\u0533\u056c\u056b\u0576\u056f\u0561\u0575\u056b \u0576\u0580\u0562\u0561\u0576\u0581\u0584
p995
tp996
a(VKozern Street
p997
V\u053f\u0578\u0566\u0565\u0580\u0576\u056b \u0583\u0578\u0572\u0578\u0581
p998
tp999
a(VAram Street
p1000
V\u0531\u0580\u0561\u0574\u056b \u0583\u0578\u0572\u0578\u0581
p1001
tp1002
a(VAram backstreet
p1003
V\u0531\u0580\u0561\u0574\u056b \u0576\u0580\u0562\u0561\u0576\u0581\u0584
p1004
tp1005
a(VSurb Hovhannes Street
p1006
V\u054d\u0578\u0582\u0580\u0562 \u0540\u0578\u057e\u0570\u0561\u0576\u0576\u0565\u057d\u056b \u0583\u0578\u0572\u0578\u0581
p1007
tp1008
a(VYeghbayrutyan Street
p1009
V\u0535\u0572\u0562\u0561\u0575\u0580\u0578\u0582\u0569\u0575\u0561\u0576 \u0583\u0578\u0572\u0578\u0581
p1010
tp1011
a(VAygedzor street
p1012
V\u0531\u0575\u0563\u0565\u0571\u0578\u0580\u056b \u0583\u0578\u0572\u0578\u0581
p1013
tp1014
a(VNalbandyan street
p1015
V\u0546\u0561\u056c\u0562\u0561\u0576\u0564\u0575\u0561\u0576\u056b \u0583\u0578\u0572\u0578\u0581
p1016
tp1017
a(VNalbandyan street
p1018
V\u0546\u0561\u056c\u0562\u0561\u0576\u0564\u0575\u0561\u0576\u056b \u0583\u0578\u0572\u0578\u0581
p1019
tp1020
a(VNar-Dos street
p1021
V\u0546\u0561\u0580\u2013\u0534\u0578\u057d\u056b \u0583\u0578\u0572\u0578\u0581
p1022
tp1023
a(VAmiryan street
p1024
V\u0531\u0574\u056b\u0580\u0575\u0561\u0576 \u0583\u0578\u0572\u0578\u0581
p1025
tp1026
a(VAmiryan street
p1027
V\u0531\u0574\u056b\u0580\u0575\u0561\u0576 \u0583\u0578\u0572\u0578\u0581
p1028
tp1029
a(VByuzand Street
p1030
V\u0532\u0575\u0578\u0582\u0566\u0561\u0576\u0564\u056b \u0583\u0578\u0572\u0578\u0581
p1031
tp1032
a(VByuzand Street
p1033
V\u0532\u0575\u0578\u0582\u0566\u0561\u0576\u0564\u056b \u0583\u0578\u0572\u0578\u0581
p1034
tp1035
a(VByuzand Street
p1036
V\u0532\u0575\u0578\u0582\u0566\u0561\u0576\u0564\u056b \u0583\u0578\u0572\u0578\u0581
p1037
tp1038
a(VFrik Street
p1039
V\u0556\u0580\u056b\u056f\u056b \u0583\u0578\u0572\u0578\u0581
p1040
tp1041
a(VMesrop Mashtots Avenue
p1042
V\u0544\u0565\u057d\u0580\u0578\u057a \u0544\u0561\u0577\u057f\u0578\u0581\u056b \u057a\u0578\u0572\u0578\u057f\u0561
p1043
tp1044
a(VNalbandyan street
p1045
V\u0546\u0561\u056c\u0562\u0561\u0576\u0564\u0575\u0561\u0576 \u0583\u0578\u0572\u0578\u0581
p1046
tp1047
a(VSaryan street
p1048
V\u054d\u0561\u0580\u0575\u0561\u0576\u056b \u0583\u0578\u0572\u0578\u0581
p1049
tp1050
a(VSat Nova avenu
p1051
V\u054d\u0561\u0569 \u0546\u0578\u057e\u0561\u0575\u056b \u057a\u0578\u0572\u0578\u057f\u0561
p1052
tp1053
a(VMarshal Baghramyan avenue
p1054
V\u0544\u0561\u0580\u0577\u0561\u056c \u0532\u0561\u0572\u0580\u0561\u0574\u0575\u0561\u0576\u056b \u057a\u0578\u0572\u0578\u057f\u0561
p1055
tp1056
a(VMarshal Baghramyan avenue
p1057
V\u0544\u0561\u0580\u0577\u0561\u056c \u0532\u0561\u0572\u0580\u0561\u0574\u0575\u0561\u0576\u056b \u057a\u0578\u0572\u0578\u057f\u0561
p1058
tp1059
a(VAbovyan street
p1060
V\u0531\u0562\u0578\u057e\u0575\u0561\u0576 \u0583\u0578\u0572\u0578\u0581
p1061
tp1062
a(VAvetik Isahakyan street
p1063
V\u0531\u057e\u0565\u057f\u056b\u0584 \u053b\u057d\u0561\u0570\u0561\u056f\u0575\u0561\u0576 \u0583\u0578\u0572\u0578\u0581
p1064
tp1065
a(VCharents Street
p1066
V\u0549\u0561\u0580\u0565\u0576\u0581\u056b \u0583\u0578\u0572\u0578\u0581
p1067
tp1068
a(VHeratsi Street
p1069
V\u0540\u0565\u057c\u0561\u0581\u0578\u0582 \u0583\u0578\u0572\u0578\u0581
p1070
tp1071
a(VNalbandyan street
p1072
V\u0546\u0561\u056c\u0562\u0561\u0576\u0564\u0575\u0561\u0576\u056b \u0583\u0578\u0572\u0578\u0581
p1073
tp1074
a(VSayat Nova Street
p1075
V\u054d\u0561\u0575\u0561\u0569 \u0546\u0578\u057e\u0561\u0575\u056b \u057a\u0578\u0572\u0578\u057f\u0561
p1076
tp1077
a(VAlek Manukyan street
p1078
V\u0531\u056c\u0565\u0584 \u0544\u0561\u0576\u0578\u0582\u056f\u0575\u0561\u0576\u056b \u0583\u0578\u0572\u0578\u0581
p1079
tp1080
a(VCharents Street
p1081
V\u0549\u0561\u0580\u0565\u0576\u0581\u056b \u0583\u0578\u0572\u0578\u0581
p1082
tp1083
a(VAtenk street
p1084
V\u0531\u0569\u0565\u0576\u0584\u056b \u0583\u0578\u0572\u0578\u0581
p1085
tp1086
a(VAtenk street
p1087
V\u0531\u0569\u0565\u0576\u0584\u056b \u0583\u0578\u0572\u0578\u0581
p1088
tp1089
a(VAtenk street
p1090
V\u0531\u0569\u0565\u0576\u0584\u056b \u0583\u0578\u0572\u0578\u0581
p1091
tp1092
a(VMarshal Baghramyan avenue
p1093
V\u0544\u0561\u0580\u0577\u0561\u056c \u0532\u0561\u0572\u0580\u0561\u0574\u0575\u0561\u0576\u056b \u057a\u0578\u0572\u0578\u057f\u0561
p1094
tp1095
a(VWerfel street
p1096
V\u054e\u0565\u0580\u0586\u0565\u056c\u056b \u0583\u0578\u0572\u0578\u0581
p1097
tp1098
a(VKhorenatsi street
p1099
V\u053d\u0578\u0580\u0565\u0576\u0561\u0581\u0578\u0582 \u0583\u0578\u0572\u0578\u0581
p1100
tp1101
a(VTigran Mets avenue
p1102
V\u054f\u056b\u0563\u0580\u0561\u0576 \u0544\u0565\u056e\u056b \u057a\u0578\u0572\u0578\u057f\u0561
p1103
tp1104
a(VTigran Mets avenue
p1105
V\u054f\u056b\u0563\u0580\u0561\u0576 \u0544\u0565\u056e\u056b \u057a\u0578\u0572\u0578\u057f\u0561
p1106
tp1107
a(VAgatangeghos street
p1108
V\u0531\u0563\u0561\u0569\u0561\u0576\u0563\u0565\u0572\u0578\u057d\u056b \u0583\u0578\u0572\u0578\u0581
p1109
tp1110
a(VKristapor street
p1111
V\u0554\u0580\u056b\u057d\u057f\u0561\u0583\u0578\u0580\u056b \u0583\u0578\u0572\u0578\u0581
p1112
tp1113
a(VTigran Mets avenue
p1114
V\u054f\u056b\u0563\u0580\u0561\u0576 \u0544\u0565\u056e\u056b \u057a\u0578\u0572\u0578\u057f\u0561
p1115
tp1116
a(VKristapor street
p1117
V\u0554\u0580\u056b\u057d\u057f\u0561\u0583\u0578\u0580\u056b \u0583\u0578\u0572\u0578\u0581
p1118
tp1119
a(VKristapor street
p1120
V\u0554\u0580\u056b\u057d\u057f\u0561\u0583\u0578\u0580\u056b \u0583\u0578\u0572\u0578\u0581
p1121
tp1122
a(VCharents Street
p1123
V\u0549\u0561\u0580\u0565\u0576\u0581\u056b \u0583\u0578\u0572\u0578\u0581
p1124
tp1125
a(VMesrop Mashtots Avenue
p1126
V\u0544\u0565\u057d\u0580\u0578\u057a \u0544\u0561\u0577\u057f\u0578\u0581\u056b \u057a\u0578\u0572\u0578\u057f\u0561
p1127
tp1128
a(VMesrop Mashtots Avenue
p1129
V\u0544\u0565\u057d\u0580\u0578\u057a \u0544\u0561\u0577\u057f\u0578\u0581\u056b \u057a\u0578\u0572\u0578\u057f\u0561
p1130
tp1131
a(VCharents Street
p1132
V\u0549\u0561\u0580\u0565\u0576\u0581\u056b \u0583\u0578\u0572\u0578\u0581
p1133
tp1134
a(VKhanjyan street
p1135
V\u053d\u0561\u0576\u057b\u0575\u0561\u0576 \u0583\u0578\u0572\u0578\u0581
p1136
tp1137
a(VNalbandyan street
p1138
V\u0546\u0561\u056c\u0562\u0561\u0576\u0564\u0575\u0561\u0576\u056b \u0583\u0578\u0572\u0578\u0581
p1139
tp1140
a(VAram Street
p1141
V\u0531\u0580\u0561\u0574\u056b \u0583\u0578\u0572\u0578\u0581
p1142
tp1143
a(VMarshal Baghramyan avenue
p1144
V\u0544\u0561\u0580\u0577\u0561\u056c \u0532\u0561\u0572\u0580\u0561\u0574\u0575\u0561\u0576\u056b \u057a\u0578\u0572\u0578\u057f\u0561
p1145
tp1146
a(VByuzand Street
p1147
V\u0532\u0575\u0578\u0582\u0566\u0561\u0576\u0564\u056b \u0583\u0578\u0572\u0578\u0581
p1148
tp1149
a(VMarshal Baghramyan avenue
p1150
V\u0544\u0561\u0580\u0577\u0561\u056c \u0532\u0561\u0572\u0580\u0561\u0574\u0575\u0561\u0576\u056b \u057a\u0578\u0572\u0578\u057f\u0561
p1151
tp1152
a(VUruguay square
p1153
V\u0548\u0582\u0580\u0578\u0582\u0563\u057e\u0561\u0575\u056b \u0570\u0580\u0561\u057a\u0561\u0580\u0561\u056f
p1154
tp1155
a(VProshyan avenue 1st line
p1156
V\u054a\u057c\u0578\u0577\u0575\u0561\u0576 \u057a\u0578\u0572\u0578\u057f\u0561 1\u056b\u0576 \u0576\u0580\u0562\u0561\u0576\u0581\u0584
p1157
tp1158
a(VYeznik Koghbaci Street
p1159
V\u0535\u0566\u0576\u056b\u056f \u053f\u0578\u0572\u0562\u0561\u0581\u0578\u0582 \u0583\u0578\u0572\u0578\u0581
p1160
tp1161
a(VProshyan avenue 1st line
p1162
V\u054a\u057c\u0578\u0577\u0575\u0561\u0576 \u057a\u0578\u0572\u0578\u057f\u0561 1\u056b\u0576 \u0576\u0580\u0562\u0561\u0576\u0581\u0584
p1163
tp1164
a(VAntarain street
p1165
V\u0531\u0576\u057f\u0561\u057c\u0561\u0575\u056b\u0576 \u0583\u0578\u0572\u0578\u0581
p1166
tp1167
a(VTsitsernakaberd Highway
p1168
V\u053e\u056b\u056e\u0565\u057c\u0576\u0561\u056f\u0561\u0562\u0565\u0580\u0564\u056b \u056d\u0573\u0578\u0582\u0572\u056b
p1169
tp1170
a(VMesrop Mashtots Avenue
p1171
V\u0544\u0565\u057d\u0580\u0578\u057a \u0544\u0561\u0577\u057f\u0578\u0581\u056b \u057a\u0578\u0572\u0578\u057f\u0561
p1172
tp1173
a(VMesrop Mashtots Avenue
p1174
V\u0544\u0565\u057d\u0580\u0578\u057a \u0544\u0561\u0577\u057f\u0578\u0581\u056b \u057a\u0578\u0572\u0578\u057f\u0561
p1175
tp1176
a(VMoskovyan Street
p1177
V\u0544\u0578\u057d\u056f\u0578\u057e\u0575\u0561\u0576 \u0583\u0578\u0572\u0578\u0581
p1178
tp1179
a(VSari Tag 8-th backstreet
p1180
V\u054d\u0561\u0580\u056b \u0539\u0561\u0572\u056b 8-\u0580\u0564 \u0576\u0580\u0562\u0561\u0576\u0581\u0584
p1181
tp1182
a(VTsaturyan street
p1183
V\u053e\u0561\u057f\u0578\u0582\u0580\u0575\u0561\u0576 \u0583\u0578\u0572\u0578\u0581
p1184
tp1185
a(VFirdusi street
p1186
V\u0556\u056b\u0580\u0564\u0578\u0582\u057d\u056b \u0583\u0578\u0572\u0578\u0581
p1187
tp1188
a(VKristapor street
p1189
V\u0554\u0580\u056b\u057d\u057f\u0561\u0583\u0578\u0580\u056b \u0583\u0578\u0572\u0578\u0581
p1190
tp1191
a(VSari Tag 10 line
p1192
V\u054d\u0561\u0580\u056b \u0539\u0561\u0572\u056b 10-\u0580\u0564 \u0563\u056b\u056e
p1193
tp1194
a(VSari Tag 4 street
p1195
V\u054d\u0561\u0580\u056b \u0539\u0561\u0572\u056b 4-\u0580\u0564 \u0583\u0578\u0572\u0578\u0581
p1196
tp1197
a(VSari Tag 7-th street
p1198
V\u054d\u0561\u0580\u056b \u0539\u0561\u0572\u056b 7-\u0580\u0564 \u0583\u0578\u0572\u0578\u0581
p1199
tp1200
a(VSari Tag 8 and 9 lines
p1201
V\u054d\u0561\u0580\u056b \u0539\u0561\u0572\u056b 8-\u0587 9-\u0580\u0564 \u0563\u056e\u0565\u0580
p1202
tp1203
a(VSari Tag 8-th street
p1204
V\u054d\u0561\u0580\u056b \u0539\u0561\u0572\u056b 8-\u0580\u0564 \u0583\u0578\u0572\u0578\u0581
p1205
tp1206
a(VSari Tag 15 street
p1207
V\u054d\u0561\u0580\u056b \u0539\u0561\u0572\u056b 15-\u0580\u0564 \u0583\u0578\u0572\u0578\u0581
p1208
tp1209
a(VAjgestan 5th street
p1210
V\u0531\u0575\u0563\u0565\u057d\u057f\u0561\u0576\u056b 5\u0580\u0564 \u0583\u0578\u0572\u0578\u0581
p1211
tp1212
a(VFizkulturnikner street
p1213
V\u0556\u056b\u0566\u056f\u0578\u0582\u056c\u057f\u0578\u0582\u0580\u0576\u056b\u056f\u0565\u0580\u056b \u0583\u0578\u0572\u0578\u0581
p1214
tp1215
a(VFrik Street
p1216
V\u0556\u0580\u056b\u056f\u056b \u0583\u0578\u0572\u0578\u0581
p1217
tp1218
a(VFrik Street
p1219
V\u0556\u0580\u056b\u056f\u056b \u0583\u0578\u0572\u0578\u0581
p1220
tp1221
a(VSmbat Zoravar Street
p1222
V\u054d\u0574\u0562\u0561\u057f \u0566\u0578\u0580\u0561\u057e\u0561\u0580\u056b \u0583\u0578\u0572\u0578\u0581
p1223
tp1224
a(VSmbat Zoravar Street
p1225
V\u054d\u0574\u0562\u0561\u057f \u0566\u0578\u0580\u0561\u057e\u0561\u0580\u056b \u0583\u0578\u0572\u0578\u0581
p1226
tp1227
a(VAjgestan 9th Street
p1228
V\u0531\u0575\u0563\u0565\u057d\u057f\u0561\u0576\u056b 9\u0580\u0564 \u0583\u0578\u0572\u0578\u0581
p1229
tp1230
a(VAjgestan 3th street
p1231
V\u0531\u0575\u0563\u0565\u057d\u057f\u0561\u0576\u056b 3\u0580\u0564 \u0583\u0578\u0572\u0578\u0581
p1232
tp1233
a(VAjgestan 4th street
p1234
V\u0531\u0575\u0563\u0565\u057d\u057f\u0561\u0576\u056b 4\u0580\u0564 \u0583\u0578\u0572\u0578\u0581
p1235
tp1236
a(VHrant Shahinyan street
p1237
V\u0540\u0580\u0561\u0576\u057f \u0547\u0561\u0570\u056b\u0576\u0575\u0561\u0576 \u0583\u0578\u0572\u0578\u0581
p1238
tp1239
a(VShara Talian street
p1240
V\u0547\u0561\u0580\u0561 \u0539\u0561\u056c\u0575\u0561\u0576 \u0583\u0578\u0572\u0578\u0581
p1241
tp1242
a(VMaisyan street
p1243
V\u0544\u0561\u056b\u057d\u0575\u0561\u0576 \u0583\u0578\u0572\u0578\u0581
p1244
tp1245
a(VAjgestan 7th street
p1246
V\u0531\u0575\u0563\u0565\u057d\u057f\u0561\u0576\u056b 7\u0580\u0564 \u0583\u0578\u0572\u0578\u0581
p1247
tp1248
a(VVardan Achemyan street
p1249
V\u054e\u0561\u0580\u0564\u0561\u0576 \u0531\u0573\u0565\u0574\u0575\u0561\u0576 \u0583\u0578\u0572\u0578\u0581
p1250
tp1251
a(VVardan Achemyan 2-nd backstreet
p1252
V\u054e\u0561\u0580\u0564\u0561\u0576 \u0531\u0573\u0565\u0574\u0575\u0561\u0576 2-\u0580\u0564 \u0576\u0580\u0562\u0561\u0576\u0581\u0584
p1253
tp1254
a(VArshakuniants avenue
p1255
V\u0531\u0580\u0577\u0561\u056f\u0578\u0582\u0576\u0575\u0561\u0576\u0581 \u057a\u0578\u0572\u0578\u057f\u0561
p1256
tp1257
a(VAsriev street
p1258
S''
p1259
tp1260
a(VHanrapetutian 2 backstreet
p1261
g1259
tp1262
a(VSayat Nova deadstreet
p1263
V\u054d\u0561\u0575\u0561\u0569 \u0546\u0578\u057e\u0561 \u0583\u0561\u056f\u0578\u0582\u0572\u056b
p1264
tp1265
a(VTumanyan 2-nd pass
p1266
V\u0539\u0578\u0582\u0574\u0561\u0576\u0575\u0561\u0576 2-\u0580\u0564 \u0561\u0576\u0581\u0578\u0582\u0572\u056b
p1267
tp1268
a(VTumanyan 2-nd pass
p1269
g1259
tp1270
a(VTumanyan 2-nd pass
p1271
g1259
tp1272
a(VKoryun backstreet
p1273
V\u053f\u0578\u0580\u0575\u0578\u0582\u0576\u056b \u0583\u0578\u0572\u0578\u0581 \u0576\u0580\u0562\u0561\u0576\u0581\u0584
p1274
tp1275
a(VKoryun backstreet
p1276
g1259
tp1277
a(VKoryun backstreet
p1278
g1259
tp1279
a(VAntarain street
p1280
V\u0531\u0576\u057f\u0561\u057c\u0561\u0575\u056b\u0576 \u0583\u0578\u0572\u0578\u0581
p1281
tp1282
a(VKhorenatsi 1 backstreet
p1283
V\u053d\u0578\u0580\u0565\u0576\u0561\u0581\u0578\u0582 1\u056b\u0576 \u0583\u0561\u056f\u0578\u0582\u0572\u056b
p1284
tp1285
a(VMesrop Mashtots Avenue
p1286
V\u0544\u0565\u057d\u0580\u0578\u057a \u0544\u0561\u0577\u057f\u0578\u0581\u056b \u057a\u0578\u0572\u0578\u057f\u0561
p1287
tp1288
a(VSmbat Zoravar Street
p1289
V\u054d\u0574\u0562\u0561\u057f \u0566\u0578\u0580\u0561\u057e\u0561\u0580\u056b \u0583\u0578\u0572\u0578\u0581
p1290
tp1291
a(VZakian Street
p1292
V\u0536\u0561\u0584\u0575\u0561\u0576 \u0583\u0578\u0572\u0578\u0581
p1293
tp1294
a(VFrik Street
p1295
V\u0556\u0580\u056b\u056f\u056b \u0583\u0578\u0572\u0578\u0581
p1296
tp1297
a(VLusinyants Street
p1298
V\u053c\u0578\u0582\u057d\u056b\u0576\u0575\u0561\u0576\u0581 \u0583\u0578\u0572\u0578\u0581
p1299
tp1300
a(VArshakuniants avenue
p1301
V\u0531\u0580\u0577\u0561\u056f\u0578\u0582\u0576\u0575\u0561\u0576\u0581 \u057a\u0578\u0572\u0578\u057f\u0561
p1302
tp1303
a(VDeghatan street
p1304
V\u0534\u0565\u0572\u0561\u057f\u0561\u0576 \u0583\u0578\u0572\u0578\u0581
p1305
tp1306
a(VKristapor 1-st backstreet
p1307
V\u0554\u0580\u056b\u057d\u057f\u0561\u0583\u0578\u0580\u056b 1-\u056b\u0576 \u0576\u0580\u0562\u0561\u0576\u0581\u0584
p1308
tp1309
a(VVardan Achemyan 1-st backstreet
p1310
V\u054e\u0561\u0580\u0564\u0561\u0576 \u0531\u0573\u0565\u0574\u0575\u0561\u0576 1-\u056b\u0576 \u0576\u0580\u0562\u0561\u0576\u0581\u0584
p1311
tp1312
a(VVardan Achemyan 3-nd backstreet
p1313
V\u054e\u0561\u0580\u0564\u0561\u0576 \u0531\u0573\u0565\u0574\u0575\u0561\u0576 3-\u0580\u0564 \u0576\u0580\u0562\u0561\u0576\u0581\u0584
p1314
tp1315
a(VHin Erevantsu Street
p1316
V\u0540\u056b\u0576 \u0535\u0580\u0587\u0561\u0576\u0581\u0578\u0582 \u0583\u0578\u0572\u0578\u0581
p1317
tp1318
a(VHin Erevantsu Street
p1319
V\u0540\u056b\u0576 \u0535\u0580\u0587\u0561\u0576\u0581\u0578\u0582 \u0583\u0578\u0572\u0578\u0581
p1320
tp1321
a(VKhanjyan street
p1322
V\u053d\u0561\u0576\u057b\u0575\u0561\u0576 \u0583\u0578\u0572\u0578\u0581
p1323
tp1324
a(VAbovyan street
p1325
V\u0531\u0562\u0578\u057e\u0575\u0561\u0576 \u0583\u0578\u0572\u0578\u0581
p1326
tp1327
a(VProshyan street
p1328
V\u054a\u057c\u0578\u0577\u0575\u0561\u0576 \u0583\u0578\u0572\u0578\u0581
p1329
tp1330
a(VTigran Mets avenue
p1331
V\u054f\u056b\u0563\u0580\u0561\u0576 \u0544\u0565\u056e\u056b \u057a\u0578\u0572\u0578\u057f\u0561
p1332
tp1333
a(VVardanants street
p1334
V\u054e\u0561\u0580\u0564\u0561\u0576\u0561\u0576\u0581 \u0583\u0578\u0572\u0578\u0581
p1335
tp1336
a(VNar-Dos street
p1337
V\u0546\u0561\u0580\u2013\u0534\u0578\u057d\u056b \u0583\u0578\u0572\u0578\u0581
p1338
tp1339
a(VRostom street
p1340
V\u054c\u0578\u057d\u057f\u0578\u0574\u056b \u0583\u0578\u0572\u0578\u0581
p1341
tp1342
a(VAygestan 11th Street
p1343
V\u0531\u0575\u0563\u0565\u057d\u057f\u0561\u0576\u056b 11\u0580\u0564 \u0583\u0578\u0572\u0578\u0581
p1344
tp1345
a(VTsitsernakaberd Highway
p1346
V\u053e\u056b\u056e\u0565\u057c\u0576\u0561\u056f\u0561\u0562\u0565\u0580\u0564\u056b \u056d\u0573\u0578\u0582\u0572\u056b
p1347
tp1348
a(VTsitsernakaberd Highway
p1349
V\u053e\u056b\u056e\u0565\u057c\u0576\u0561\u056f\u0561\u0562\u0565\u0580\u0564\u056b \u056d\u0573\u0578\u0582\u0572\u056b
p1350
tp1351
a(VTsitsernakaberd Highway
p1352
V\u053e\u056b\u056e\u0565\u057c\u0576\u0561\u056f\u0561\u0562\u0565\u0580\u0564\u056b \u056d\u0573\u0578\u0582\u0572\u056b
p1353
tp1354
a(VTsitsernakaberd Highway
p1355
V\u053e\u056b\u056e\u0565\u057c\u0576\u0561\u056f\u0561\u0562\u0565\u0580\u0564\u056b \u056d\u0573\u0578\u0582\u0572\u056b
p1356
tp1357
a(VMesrop Mashtots Avenue
p1358
V\u0544\u0565\u057d\u0580\u0578\u057a \u0544\u0561\u0577\u057f\u0578\u0581\u056b \u057a\u0578\u0572\u0578\u057f\u0561
p1359
tp1360
a(VGaregin Nzhdeh street
p1361
V\u0533\u0561\u0580\u0565\u0563\u056b\u0576 \u0546\u056a\u0564\u0565\u0570\u056b \u0583\u0578\u0572\u0578\u0581
p1362
tp1363
a(VGaregin Nzhdeh street
p1364
V\u0533\u0561\u0580\u0565\u0563\u056b\u0576 \u0546\u056a\u0564\u0565\u0570\u056b \u0583\u0578\u0572\u0578\u0581
p1365
tp1366
a(VGaregin Nzhdeh street
p1367
V\u0533\u0561\u0580\u0565\u0563\u056b\u0576 \u0546\u056a\u0564\u0565\u0570\u056b \u0583\u0578\u0572\u0578\u0581
p1368
tp1369
a(VMonte Melkonian avenue
p1370
V\u0544\u0578\u0576\u0569\u0565 \u0544\u0565\u056c\u0584\u0578\u0576\u0575\u0561\u0576\u056b \u057a\u0578\u0572\u0578\u057f\u0561
p1371
tp1372
a(VMarshal Baghramyan avenue
p1373
V\u0544\u0561\u0580\u0577\u0561\u056c \u0532\u0561\u0572\u0580\u0561\u0574\u0575\u0561\u0576\u056b \u057a\u0578\u0572\u0578\u057f\u0561
p1374
tp1375
a(VTumanian street
p1376
V\u0539\u0578\u0582\u0574\u0561\u0576\u0575\u0561\u0576 \u0583\u0578\u0572\u0578\u0581
p1377
tp1378
a(VAvag Petrosyan street
p1379
V\u0531\u057e\u0561\u0563 \u054a\u0565\u057f\u0580\u0578\u057d\u0575\u0561\u0576 \u0583\u0578\u0572\u0578\u0581
p1380
tp1381
a(VHin Erevantsu Street
p1382
V\u0540\u056b\u0576 \u0535\u0580\u0587\u0561\u0576\u0581\u0578\u0582 \u0583\u0578\u0572\u0578\u0581
p1383
tp1384
a.